ccopy_reg
_reconstructor
p1
(cpytopia.adapt.gensim.dictionary.GensimDictAdapter
GensimDictAdapter
p2
c__builtin__
object
p3
NtRp4
(S'GensimDictAdapter'
p5
(lp6
S'corpusId'
p7
aS'txt2tokId'
p8
aS'buildOpts'
p9
a(dp10
g9
Nsg7
S'iter0_cronews_final'
p11
sg8
S'CroelectTxt2Tokens'
p12
sS'croelect_dict_iter0'
p13
tb.