ccopy_reg
_reconstructor
p0
(cdoc_topic_coh.coherence.tools
IdList
p1
c__builtin__
list
p2
(lp3
((S'croelect_model1'
p4
I0
tp5
S'theme'
p6
tp7
a((g4
I1
tp8
g6
tp9
a((g4
I2
tp10
S'theme_noise'
p11
tp12
a((g4
I3
tp13
g6
tp14
a((g4
I4
tp15
g6
tp16
a((g4
I5
tp17
g6
tp18
a((g4
I6
tp19
g6
tp20
a((g4
I7
tp21
g6
tp22
a((g4
I8
tp23
g6
tp24
a((g4
I9
tp25
g11
tp26
a((g4
I10
tp27
g6
tp28
a((g4
I11
tp29
g6
tp30
a((g4
I12
tp31
g6
tp32
a((g4
I13
tp33
S'noise'
p34
tp35
a((g4
I14
tp36
S'theme_mix'
p37
tp38
a((g4
I15
tp39
g34
tp40
a((g4
I16
tp41
g11
tp42
a((g4
I17
tp43
g34
tp44
a((g4
I18
tp45
g37
tp46
a((g4
I19
tp47
g6
tp48
a((g4
I20
tp49
g34
tp50
a((g4
I21
tp51
g6
tp52
a((g4
I22
tp53
g6
tp54
a((g4
I23
tp55
g37
tp56
a((g4
I24
tp57
g6
tp58
a((g4
I25
tp59
g37
tp60
a((g4
I26
tp61
g34
tp62
a((g4
I27
tp63
g11
tp64
a((g4
I28
tp65
g34
tp66
a((g4
I29
tp67
g11
tp68
a((g4
I30
tp69
g6
tp70
a((g4
I31
tp71
g37
tp72
a((g4
I32
tp73
g6
tp74
a((g4
I33
tp75
g37
tp76
a((g4
I34
tp77
g34
tp78
a((g4
I35
tp79
g6
tp80
a((g4
I36
tp81
g11
tp82
a((g4
I37
tp83
g6
tp84
a((g4
I38
tp85
g6
tp86
a((g4
I39
tp87
g34
tp88
a((g4
I40
tp89
g34
tp90
a((g4
I41
tp91
g6
tp92
a((g4
I42
tp93
g34
tp94
a((g4
I43
tp95
g11
tp96
a((g4
I44
tp97
g11
tp98
a((g4
I45
tp99
g6
tp100
a((g4
I46
tp101
g6
tp102
a((g4
I47
tp103
g34
tp104
a((g4
I48
tp105
g6
tp106
a((g4
I49
tp107
g11
tp108
a((S'croelect_model2'
p109
I0
tp110
g6
tp111
a((g109
I1
tp112
g34
tp113
a((g109
I2
tp114
g37
tp115
a((g109
I3
tp116
g34
tp117
a((g109
I4
tp118
g6
tp119
a((g109
I5
tp120
g11
tp121
a((g109
I6
tp122
g11
tp123
a((g109
I7
tp124
g11
tp125
a((g109
I8
tp126
g6
tp127
a((g109
I9
tp128
g6
tp129
a((g109
I10
tp130
g11
tp131
a((g109
I11
tp132
g6
tp133
a((g109
I12
tp134
g37
tp135
a((g109
I13
tp136
g11
tp137
a((g109
I14
tp138
g11
tp139
a((g109
I15
tp140
g6
tp141
a((g109
I16
tp142
g6
tp143
a((g109
I17
tp144
g34
tp145
a((g109
I18
tp146
g6
tp147
a((g109
I19
tp148
g6
tp149
a((g109
I20
tp150
g6
tp151
a((g109
I21
tp152
g6
tp153
a((g109
I22
tp154
g6
tp155
a((g109
I23
tp156
g6
tp157
a((g109
I24
tp158
g34
tp159
a((g109
I25
tp160
g6
tp161
a((g109
I26
tp162
g11
tp163
a((g109
I27
tp164
g6
tp165
a((g109
I28
tp166
g11
tp167
a((g109
I29
tp168
g6
tp169
a((g109
I30
tp170
g6
tp171
a((g109
I31
tp172
g34
tp173
a((g109
I32
tp174
g11
tp175
a((g109
I33
tp176
g11
tp177
a((g109
I34
tp178
g6
tp179
a((g109
I35
tp180
g6
tp181
a((g109
I36
tp182
g34
tp183
a((g109
I37
tp184
g11
tp185
a((g109
I38
tp186
g11
tp187
a((g109
I39
tp188
g6
tp189
a((g109
I40
tp190
g11
tp191
a((g109
I41
tp192
g34
tp193
a((g109
I42
tp194
g34
tp195
a((g109
I43
tp196
g34
tp197
a((g109
I44
tp198
g6
tp199
a((g109
I45
tp200
g6
tp201
a((g109
I46
tp202
g34
tp203
a((g109
I47
tp204
g6
tp205
a((g109
I48
tp206
g6
tp207
a((g109
I49
tp208
g11
tp209
a((S'croelect_model3'
p210
I0
tp211
g11
tp212
a((g210
I1
tp213
g34
tp214
a((g210
I2
tp215
g6
tp216
a((g210
I3
tp217
g34
tp218
a((g210
I4
tp219
g6
tp220
a((g210
I5
tp221
g11
tp222
a((g210
I6
tp223
g34
tp224
a((g210
I7
tp225
g37
tp226
a((g210
I8
tp227
g6
tp228
a((g210
I9
tp229
g34
tp230
a((g210
I10
tp231
g6
tp232
a((g210
I11
tp233
g6
tp234
a((g210
I12
tp235
g34
tp236
a((g210
I13
tp237
g6
tp238
a((g210
I14
tp239
g34
tp240
a((g210
I15
tp241
g6
tp242
a((g210
I16
tp243
g34
tp244
a((g210
I17
tp245
g11
tp246
a((g210
I18
tp247
g6
tp248
a((g210
I19
tp249
g34
tp250
a((g210
I20
tp251
g11
tp252
a((g210
I21
tp253
g34
tp254
a((g210
I22
tp255
g34
tp256
a((g210
I23
tp257
g11
tp258
a((g210
I24
tp259
g34
tp260
a((g210
I25
tp261
g34
tp262
a((g210
I26
tp263
g6
tp264
a((g210
I27
tp265
g11
tp266
a((g210
I28
tp267
g6
tp268
a((g210
I29
tp269
g6
tp270
a((g210
I30
tp271
g34
tp272
a((g210
I31
tp273
g34
tp274
a((g210
I32
tp275
g34
tp276
a((g210
I33
tp277
g6
tp278
a((g210
I34
tp279
g34
tp280
a((g210
I35
tp281
g11
tp282
a((g210
I36
tp283
g6
tp284
a((g210
I37
tp285
g6
tp286
a((g210
I38
tp287
g11
tp288
a((g210
I39
tp289
g11
tp290
a((g210
I40
tp291
g34
tp292
a((g210
I41
tp293
g6
tp294
a((g210
I42
tp295
g34
tp296
a((g210
I43
tp297
g11
tp298
a((g210
I44
tp299
g11
tp300
a((g210
I45
tp301
g6
tp302
a((g210
I46
tp303
g34
tp304
a((g210
I47
tp305
g34
tp306
a((g210
I48
tp307
g6
tp308
a((g210
I49
tp309
g34
tp310
a((g210
I50
tp311
g34
tp312
a((g210
I51
tp313
g6
tp314
a((g210
I52
tp315
g34
tp316
a((g210
I53
tp317
g6
tp318
a((g210
I54
tp319
g11
tp320
a((g210
I55
tp321
g11
tp322
a((g210
I56
tp323
g6
tp324
a((g210
I57
tp325
g6
tp326
a((g210
I58
tp327
g11
tp328
a((g210
I59
tp329
g37
tp330
a((g210
I60
tp331
g11
tp332
a((g210
I61
tp333
g37
tp334
a((g210
I62
tp335
g34
tp336
a((g210
I63
tp337
g6
tp338
a((g210
I64
tp339
g6
tp340
a((g210
I65
tp341
g6
tp342
a((g210
I66
tp343
g11
tp344
a((g210
I67
tp345
g6
tp346
a((g210
I68
tp347
g34
tp348
a((g210
I69
tp349
g11
tp350
a((g210
I70
tp351
g6
tp352
a((g210
I71
tp353
g34
tp354
a((g210
I72
tp355
g34
tp356
a((g210
I73
tp357
g6
tp358
a((g210
I74
tp359
g6
tp360
a((g210
I75
tp361
g6
tp362
a((g210
I76
tp363
g34
tp364
a((g210
I77
tp365
g6
tp366
a((g210
I78
tp367
g34
tp368
a((g210
I79
tp369
g34
tp370
a((g210
I80
tp371
g6
tp372
a((g210
I81
tp373
g11
tp374
a((g210
I82
tp375
g34
tp376
a((g210
I83
tp377
g11
tp378
a((g210
I84
tp379
g6
tp380
a((g210
I85
tp381
g34
tp382
a((g210
I86
tp383
g11
tp384
a((g210
I87
tp385
g34
tp386
a((g210
I88
tp387
g11
tp388
a((g210
I89
tp389
g6
tp390
a((g210
I90
tp391
g6
tp392
a((g210
I91
tp393
g34
tp394
a((g210
I92
tp395
g11
tp396
a((g210
I93
tp397
g6
tp398
a((g210
I94
tp399
g11
tp400
a((g210
I95
tp401
g34
tp402
a((g210
I96
tp403
g11
tp404
a((g210
I97
tp405
g11
tp406
a((g210
I98
tp407
g6
tp408
a((g210
I99
tp409
g11
tp410
a((S'croelect_model4'
p411
I0
tp412
g6
tp413
a((g411
I1
tp414
g6
tp415
a((g411
I2
tp416
g34
tp417
a((g411
I3
tp418
g34
tp419
a((g411
I4
tp420
g6
tp421
a((g411
I5
tp422
g6
tp423
a((g411
I6
tp424
g34
tp425
a((g411
I7
tp426
g6
tp427
a((g411
I8
tp428
g6
tp429
a((g411
I9
tp430
g37
tp431
a((g411
I10
tp432
g11
tp433
a((g411
I11
tp434
g6
tp435
a((g411
I12
tp436
g6
tp437
a((g411
I13
tp438
g11
tp439
a((g411
I14
tp440
g6
tp441
a((g411
I15
tp442
g34
tp443
a((g411
I16
tp444
g6
tp445
a((g411
I17
tp446
g6
tp447
a((g411
I18
tp448
g6
tp449
a((g411
I19
tp450
g6
tp451
a((g411
I20
tp452
g37
tp453
a((g411
I21
tp454
g6
tp455
a((g411
I22
tp456
g6
tp457
a((g411
I23
tp458
g34
tp459
a((g411
I24
tp460
g6
tp461
a((g411
I25
tp462
g6
tp463
a((g411
I26
tp464
g11
tp465
a((g411
I27
tp466
g37
tp467
a((g411
I28
tp468
g34
tp469
a((g411
I29
tp470
g11
tp471
a((g411
I30
tp472
g34
tp473
a((g411
I31
tp474
g37
tp475
a((g411
I32
tp476
g34
tp477
a((g411
I33
tp478
g6
tp479
a((g411
I34
tp480
g37
tp481
a((g411
I35
tp482
g34
tp483
a((g411
I36
tp484
g6
tp485
a((g411
I37
tp486
g6
tp487
a((g411
I38
tp488
g6
tp489
a((g411
I39
tp490
g6
tp491
a((g411
I40
tp492
g6
tp493
a((g411
I41
tp494
g6
tp495
a((g411
I42
tp496
g6
tp497
a((g411
I43
tp498
g34
tp499
a((g411
I44
tp500
g34
tp501
a((g411
I45
tp502
g6
tp503
a((g411
I46
tp504
g34
tp505
a((g411
I47
tp506
g6
tp507
a((g411
I48
tp508
g6
tp509
a((g411
I49
tp510
g6
tp511
atp512
Rp513
(dp514
S'id'
p515
S'croelect_topics_categorized'
p516
sb.